target datalayout = "e-m:e-p270:32:32-p271:32:32-p272:64:64-i64:64-i128:128-f80:128-n8:16:32:64-S128"
target triple = "x86_64-pc-linux-gnu"

%struct.pointf_s = type { double, double }
%struct.state_t = type { ptr, ptr, %struct.pointf_s, %struct.pointf_s, %struct.pointf_s, %struct.pointf_s, ptr }
%struct.Info_t = type { ptr, %struct.Site, i8, %struct.Poly, ptr, i64 }
%struct.Site = type { %struct.pointf_s, i64, i32 }
%struct.Poly = type { %struct.pointf_s, %struct.pointf_s, i32, ptr, i32 }

@nodeInfo = external global ptr, align 8

; Function Attrs: nounwind uwtable
define internal void @rmEquality(ptr noundef %0) #0 {
  %2 = alloca ptr, align 8
  %3 = alloca ptr, align 8
  %4 = alloca i32, align 4
  %5 = alloca ptr, align 8
  %6 = alloca i32, align 4
  %7 = alloca ptr, align 8
  %8 = alloca double, align 8
  %9 = alloca i32, align 4
  %10 = alloca ptr, align 8
  %11 = alloca double, align 8
  store ptr %0, ptr %2, align 8, !tbaa !49
  %12 = load ptr, ptr %2, align 8, !tbaa !49
  call void @sortSites(ptr noundef %12)
  call void @llvm.lifetime.start.p0(i64 8, ptr %3) #13
  %13 = load ptr, ptr %2, align 8, !tbaa !49
  %14 = getelementptr inbounds nuw %struct.state_t, ptr %13, i32 0, i32 0
  %15 = load ptr, ptr %14, align 8, !tbaa !83
  store ptr %15, ptr %3, align 8, !tbaa !156
  br label %16

16:                                               ; preds = %219, %217, %1
  %17 = load ptr, ptr %3, align 8, !tbaa !156
  %18 = load ptr, ptr %2, align 8, !tbaa !49
  %19 = getelementptr inbounds nuw %struct.state_t, ptr %18, i32 0, i32 1
  %20 = load ptr, ptr %19, align 8, !tbaa !157
  %21 = icmp ult ptr %17, %20
  br i1 %21, label %23, label %22

22:                                               ; preds = %16
  store i32 2, ptr %4, align 4
  call void @llvm.lifetime.end.p0(i64 8, ptr %3) #13
  br label %220

23:                                               ; preds = %16
  call void @llvm.lifetime.start.p0(i64 8, ptr %5) #13
  %24 = load ptr, ptr %3, align 8, !tbaa !156
  %25 = getelementptr inbounds ptr, ptr %24, i64 1
  store ptr %25, ptr %5, align 8, !tbaa !156
  %26 = load ptr, ptr %5, align 8, !tbaa !156
  %27 = load ptr, ptr %2, align 8, !tbaa !49
  %28 = getelementptr inbounds nuw %struct.state_t, ptr %27, i32 0, i32 1
  %29 = load ptr, ptr %28, align 8, !tbaa !157
  %30 = icmp uge ptr %26, %29
  br i1 %30, label %55, label %31

31:                                               ; preds = %23
  %32 = load ptr, ptr %5, align 8, !tbaa !156
  %33 = load ptr, ptr %32, align 8, !tbaa !158
  %34 = getelementptr inbounds nuw %struct.Site, ptr %33, i32 0, i32 0
  %35 = getelementptr inbounds nuw %struct.pointf_s, ptr %34, i32 0, i32 0
  %36 = load double, ptr %35, align 8, !tbaa !160
  %37 = load ptr, ptr %3, align 8, !tbaa !156
  %38 = load ptr, ptr %37, align 8, !tbaa !158
  %39 = getelementptr inbounds nuw %struct.Site, ptr %38, i32 0, i32 0
  %40 = getelementptr inbounds nuw %struct.pointf_s, ptr %39, i32 0, i32 0
  %41 = load double, ptr %40, align 8, !tbaa !160
  %42 = fcmp une double %36, %41
  br i1 %42, label %55, label %43

43:                                               ; preds = %31
  %44 = load ptr, ptr %5, align 8, !tbaa !156
  %45 = load ptr, ptr %44, align 8, !tbaa !158
  %46 = getelementptr inbounds nuw %struct.Site, ptr %45, i32 0, i32 0
  %47 = getelementptr inbounds nuw %struct.pointf_s, ptr %46, i32 0, i32 1
  %48 = load double, ptr %47, align 8, !tbaa !161
  %49 = load ptr, ptr %3, align 8, !tbaa !156
  %50 = load ptr, ptr %49, align 8, !tbaa !158
  %51 = getelementptr inbounds nuw %struct.Site, ptr %50, i32 0, i32 0
  %52 = getelementptr inbounds nuw %struct.pointf_s, ptr %51, i32 0, i32 1
  %53 = load double, ptr %52, align 8, !tbaa !161
  %54 = fcmp une double %48, %53
  br i1 %54, label %55, label %57

55:                                               ; preds = %43, %31, %23
  %56 = load ptr, ptr %5, align 8, !tbaa !156
  store ptr %56, ptr %3, align 8, !tbaa !156
  store i32 3, ptr %4, align 4
  br label %217, !llvm.loop !162

57:                                               ; preds = %43
  call void @llvm.lifetime.start.p0(i64 4, ptr %6) #13
  store i32 2, ptr %6, align 4, !tbaa !16
  call void @llvm.lifetime.start.p0(i64 8, ptr %7) #13
  %58 = load ptr, ptr %5, align 8, !tbaa !156
  %59 = getelementptr inbounds ptr, ptr %58, i64 1
  store ptr %59, ptr %7, align 8, !tbaa !156
  br label %60

60:                                               ; preds = %92, %57
  %61 = load ptr, ptr %7, align 8, !tbaa !156
  %62 = load ptr, ptr %2, align 8, !tbaa !49
  %63 = getelementptr inbounds nuw %struct.state_t, ptr %62, i32 0, i32 1
  %64 = load ptr, ptr %63, align 8, !tbaa !157
  %65 = icmp ult ptr %61, %64
  br i1 %65, label %66, label %90

66:                                               ; preds = %60
  %67 = load ptr, ptr %7, align 8, !tbaa !156
  %68 = load ptr, ptr %67, align 8, !tbaa !158
  %69 = getelementptr inbounds nuw %struct.Site, ptr %68, i32 0, i32 0
  %70 = getelementptr inbounds nuw %struct.pointf_s, ptr %69, i32 0, i32 0
  %71 = load double, ptr %70, align 8, !tbaa !160
  %72 = load ptr, ptr %3, align 8, !tbaa !156
  %73 = load ptr, ptr %72, align 8, !tbaa !158
  %74 = getelementptr inbounds nuw %struct.Site, ptr %73, i32 0, i32 0
  %75 = getelementptr inbounds nuw %struct.pointf_s, ptr %74, i32 0, i32 0
  %76 = load double, ptr %75, align 8, !tbaa !160
  %77 = fcmp oeq double %71, %76
  br i1 %77, label %78, label %90

78:                                               ; preds = %66
  %79 = load ptr, ptr %7, align 8, !tbaa !156
  %80 = load ptr, ptr %79, align 8, !tbaa !158
  %81 = getelementptr inbounds nuw %struct.Site, ptr %80, i32 0, i32 0
  %82 = getelementptr inbounds nuw %struct.pointf_s, ptr %81, i32 0, i32 1
  %83 = load double, ptr %82, align 8, !tbaa !161
  %84 = load ptr, ptr %3, align 8, !tbaa !156
  %85 = load ptr, ptr %84, align 8, !tbaa !158
  %86 = getelementptr inbounds nuw %struct.Site, ptr %85, i32 0, i32 0
  %87 = getelementptr inbounds nuw %struct.pointf_s, ptr %86, i32 0, i32 1
  %88 = load double, ptr %87, align 8, !tbaa !161
  %89 = fcmp oeq double %83, %88
  br label %90

90:                                               ; preds = %78, %66, %60
  %91 = phi i1 [ false, %66 ], [ false, %60 ], [ %89, %78 ]
  br i1 %91, label %92, label %98

92:                                               ; preds = %90
  %93 = load i32, ptr %6, align 4, !tbaa !16
  %94 = add nsw i32 %93, 1
  store i32 %94, ptr %6, align 4, !tbaa !16
  %95 = load ptr, ptr %7, align 8, !tbaa !156
  store ptr %95, ptr %5, align 8, !tbaa !156
  %96 = load ptr, ptr %5, align 8, !tbaa !156
  %97 = getelementptr inbounds ptr, ptr %96, i64 1
  store ptr %97, ptr %7, align 8, !tbaa !156
  br label %60, !llvm.loop !163

98:                                               ; preds = %90
  %99 = load ptr, ptr %7, align 8, !tbaa !156
  %100 = load ptr, ptr %2, align 8, !tbaa !49
  %101 = getelementptr inbounds nuw %struct.state_t, ptr %100, i32 0, i32 1
  %102 = load ptr, ptr %101, align 8, !tbaa !157
  %103 = icmp ult ptr %99, %102
  br i1 %103, label %104, label %153

104:                                              ; preds = %98
  %105 = load ptr, ptr %7, align 8, !tbaa !156
  %106 = load ptr, ptr %105, align 8, !tbaa !158
  %107 = getelementptr inbounds nuw %struct.Site, ptr %106, i32 0, i32 0
  %108 = getelementptr inbounds nuw %struct.pointf_s, ptr %107, i32 0, i32 1
  %109 = load double, ptr %108, align 8, !tbaa !161
  %110 = load ptr, ptr %3, align 8, !tbaa !156
  %111 = load ptr, ptr %110, align 8, !tbaa !158
  %112 = getelementptr inbounds nuw %struct.Site, ptr %111, i32 0, i32 0
  %113 = getelementptr inbounds nuw %struct.pointf_s, ptr %112, i32 0, i32 1
  %114 = load double, ptr %113, align 8, !tbaa !161
  %115 = fcmp oeq double %109, %114
  br i1 %115, label %116, label %153

116:                                              ; preds = %104
  call void @llvm.lifetime.start.p0(i64 8, ptr %8) #13
  %117 = load ptr, ptr %7, align 8, !tbaa !156
  %118 = load ptr, ptr %117, align 8, !tbaa !158
  %119 = getelementptr inbounds nuw %struct.Site, ptr %118, i32 0, i32 0
  %120 = getelementptr inbounds nuw %struct.pointf_s, ptr %119, i32 0, i32 0
  %121 = load double, ptr %120, align 8, !tbaa !160
  %122 = load ptr, ptr %3, align 8, !tbaa !156
  %123 = load ptr, ptr %122, align 8, !tbaa !158
  %124 = getelementptr inbounds nuw %struct.Site, ptr %123, i32 0, i32 0
  %125 = getelementptr inbounds nuw %struct.pointf_s, ptr %124, i32 0, i32 0
  %126 = load double, ptr %125, align 8, !tbaa !160
  %127 = fsub double %121, %126
  %128 = load i32, ptr %6, align 4, !tbaa !16
  %129 = sitofp i32 %128 to double
  %130 = fdiv double %127, %129
  store double %130, ptr %8, align 8, !tbaa !40
  call void @llvm.lifetime.start.p0(i64 4, ptr %9) #13
  store i32 1, ptr %9, align 4, !tbaa !16
  %131 = load ptr, ptr %3, align 8, !tbaa !156
  %132 = getelementptr inbounds ptr, ptr %131, i64 1
  store ptr %132, ptr %5, align 8, !tbaa !156
  br label %133

133:                                              ; preds = %149, %116
  %134 = load ptr, ptr %5, align 8, !tbaa !156
  %135 = load ptr, ptr %7, align 8, !tbaa !156
  %136 = icmp ult ptr %134, %135
  br i1 %136, label %137, label %152

137:                                              ; preds = %133
  %138 = load i32, ptr %9, align 4, !tbaa !16
  %139 = sitofp i32 %138 to double
  %140 = load double, ptr %8, align 8, !tbaa !40
  %141 = load ptr, ptr %5, align 8, !tbaa !156
  %142 = load ptr, ptr %141, align 8, !tbaa !158
  %143 = getelementptr inbounds nuw %struct.Site, ptr %142, i32 0, i32 0
  %144 = getelementptr inbounds nuw %struct.pointf_s, ptr %143, i32 0, i32 0
  %145 = load double, ptr %144, align 8, !tbaa !160
  %146 = call double @llvm.fmuladd.f64(double %139, double %140, double %145)
  store double %146, ptr %144, align 8, !tbaa !160
  %147 = load i32, ptr %9, align 4, !tbaa !16
  %148 = add nsw i32 %147, 1
  store i32 %148, ptr %9, align 4, !tbaa !16
  br label %149

149:                                              ; preds = %137
  %150 = load ptr, ptr %5, align 8, !tbaa !156
  %151 = getelementptr inbounds nuw ptr, ptr %150, i32 1
  store ptr %151, ptr %5, align 8, !tbaa !156
  br label %133, !llvm.loop !164

152:                                              ; preds = %133
  call void @llvm.lifetime.end.p0(i64 4, ptr %9) #13
  call void @llvm.lifetime.end.p0(i64 8, ptr %8) #13
  br label %215

153:                                              ; preds = %104, %98
  call void @llvm.lifetime.start.p0(i64 8, ptr %10) #13
  %154 = load ptr, ptr %3, align 8, !tbaa !156
  %155 = getelementptr inbounds ptr, ptr %154, i64 1
  store ptr %155, ptr %5, align 8, !tbaa !156
  br label %156

156:                                              ; preds = %209, %153
  %157 = load ptr, ptr %5, align 8, !tbaa !156
  %158 = load ptr, ptr %7, align 8, !tbaa !156
  %159 = icmp ult ptr %157, %158
  br i1 %159, label %160, label %214

160:                                              ; preds = %156
  %161 = load ptr, ptr @nodeInfo, align 8, !tbaa !49
  %162 = load ptr, ptr %3, align 8, !tbaa !156
  %163 = load ptr, ptr %162, align 8, !tbaa !158
  %164 = getelementptr inbounds nuw %struct.Site, ptr %163, i32 0, i32 1
  %165 = load i64, ptr %164, align 8, !tbaa !165
  %166 = getelementptr inbounds nuw %struct.Info_t, ptr %161, i64 %165
  store ptr %166, ptr %10, align 8, !tbaa !49
  call void @llvm.lifetime.start.p0(i64 8, ptr %11) #13
  %167 = load ptr, ptr %10, align 8, !tbaa !49
  %168 = getelementptr inbounds nuw %struct.Info_t, ptr %167, i32 0, i32 3
  %169 = getelementptr inbounds nuw %struct.Poly, ptr %168, i32 0, i32 1
  %170 = getelementptr inbounds nuw %struct.pointf_s, ptr %169, i32 0, i32 0
  %171 = load double, ptr %170, align 8, !tbaa !166
  %172 = load ptr, ptr %10, align 8, !tbaa !49
  %173 = getelementptr inbounds nuw %struct.Info_t, ptr %172, i32 0, i32 3
  %174 = getelementptr inbounds nuw %struct.Poly, ptr %173, i32 0, i32 0
  %175 = getelementptr inbounds nuw %struct.pointf_s, ptr %174, i32 0, i32 0
  %176 = load double, ptr %175, align 8, !tbaa !167
  %177 = fsub double %171, %176
  store double %177, ptr %11, align 8, !tbaa !40
  %178 = load ptr, ptr @nodeInfo, align 8, !tbaa !49
  %179 = load ptr, ptr %5, align 8, !tbaa !156
  %180 = load ptr, ptr %179, align 8, !tbaa !158
  %181 = getelementptr inbounds nuw %struct.Site, ptr %180, i32 0, i32 1
  %182 = load i64, ptr %181, align 8, !tbaa !165
  %183 = getelementptr inbounds nuw %struct.Info_t, ptr %178, i64 %182
  store ptr %183, ptr %10, align 8, !tbaa !49
  %184 = load ptr, ptr %10, align 8, !tbaa !49
  %185 = getelementptr inbounds nuw %struct.Info_t, ptr %184, i32 0, i32 3
  %186 = getelementptr inbounds nuw %struct.Poly, ptr %185, i32 0, i32 1
  %187 = getelementptr inbounds nuw %struct.pointf_s, ptr %186, i32 0, i32 0
  %188 = load double, ptr %187, align 8, !tbaa !166
  %189 = load ptr, ptr %10, align 8, !tbaa !49
  %190 = getelementptr inbounds nuw %struct.Info_t, ptr %189, i32 0, i32 3
  %191 = getelementptr inbounds nuw %struct.Poly, ptr %190, i32 0, i32 0
  %192 = getelementptr inbounds nuw %struct.pointf_s, ptr %191, i32 0, i32 0
  %193 = load double, ptr %192, align 8, !tbaa !167
  %194 = fsub double %188, %193
  %195 = load double, ptr %11, align 8, !tbaa !40
  %196 = fadd double %195, %194
  store double %196, ptr %11, align 8, !tbaa !40
  %197 = load ptr, ptr %3, align 8, !tbaa !156
  %198 = load ptr, ptr %197, align 8, !tbaa !158
  %199 = getelementptr inbounds nuw %struct.Site, ptr %198, i32 0, i32 0
  %200 = getelementptr inbounds nuw %struct.pointf_s, ptr %199, i32 0, i32 0
  %201 = load double, ptr %200, align 8, !tbaa !160
  %202 = load double, ptr %11, align 8, !tbaa !40
  %203 = fdiv double %202, 2.000000e+00
  %204 = fadd double %201, %203
  %205 = load ptr, ptr %5, align 8, !tbaa !156
  %206 = load ptr, ptr %205, align 8, !tbaa !158
  %207 = getelementptr inbounds nuw %struct.Site, ptr %206, i32 0, i32 0
  %208 = getelementptr inbounds nuw %struct.pointf_s, ptr %207, i32 0, i32 0
  store double %204, ptr %208, align 8, !tbaa !160
  call void @llvm.lifetime.end.p0(i64 8, ptr %11) #13
  br label %209

209:                                              ; preds = %160
  %210 = load ptr, ptr %3, align 8, !tbaa !156
  %211 = getelementptr inbounds nuw ptr, ptr %210, i32 1
  store ptr %211, ptr %3, align 8, !tbaa !156
  %212 = load ptr, ptr %5, align 8, !tbaa !156
  %213 = getelementptr inbounds nuw ptr, ptr %212, i32 1
  store ptr %213, ptr %5, align 8, !tbaa !156
  br label %156, !llvm.loop !168

214:                                              ; preds = %156
  call void @llvm.lifetime.end.p0(i64 8, ptr %10) #13
  br label %215

215:                                              ; preds = %214, %152
  %216 = load ptr, ptr %7, align 8, !tbaa !156
  store ptr %216, ptr %3, align 8, !tbaa !156
  call void @llvm.lifetime.end.p0(i64 8, ptr %7) #13
  call void @llvm.lifetime.end.p0(i64 4, ptr %6) #13
  store i32 0, ptr %4, align 4
  br label %217

217:                                              ; preds = %215, %55
  call void @llvm.lifetime.end.p0(i64 8, ptr %5) #13
  %218 = load i32, ptr %4, align 4
  switch i32 %218, label %221 [
    i32 0, label %219
    i32 3, label %16
  ]

219:                                              ; preds = %217
  br label %16, !llvm.loop !162

220:                                              ; preds = %22
  ret void

221:                                              ; preds = %217
  unreachable
}