; Function Attrs: nofree nounwind uwtable
define internal fastcc void @rmEquality(ptr noundef nonnull captures(none) %0) unnamed_addr #14 {
  tail call fastcc void @sortSites(ptr noundef %0)
  %2 = load ptr, ptr %0, align 8, !tbaa !105
  %3 = getelementptr inbounds nuw i8, ptr %0, i64 8
  %4 = load ptr, ptr %3, align 8, !tbaa !148
  %5 = icmp ult ptr %2, %4
  br i1 %5, label %.lr.ph72, label %._crit_edge

.lr.ph72:                                         ; preds = %1
  %6 = load ptr, ptr @nodeInfo, align 8
  br label %7

._crit_edge:                                      ; preds = %.loopexit, %1
  ret void

7:                                                ; preds = %.lr.ph72, %.loopexit
  %.071 = phi ptr [ %2, %.lr.ph72 ], [ %.1, %.loopexit ]
  %8 = getelementptr inbounds nuw i8, ptr %.071, i64 8
  %.not = icmp ult ptr %8, %4
  br i1 %.not, label %9, label %.loopexit, !llvm.loop !149

9:                                                ; preds = %7
  %10 = load ptr, ptr %8, align 8, !tbaa !106
  %11 = load double, ptr %10, align 8, !tbaa !108
  %12 = load ptr, ptr %.071, align 8, !tbaa !106
  %13 = load double, ptr %12, align 8, !tbaa !108
  %14 = fcmp une double %11, %13
  br i1 %14, label %.loopexit, label %15, !llvm.loop !149

15:                                               ; preds = %9
  %16 = getelementptr inbounds nuw i8, ptr %10, i64 8
  %17 = load double, ptr %16, align 8, !tbaa !110
  %18 = getelementptr inbounds nuw i8, ptr %12, i64 8
  %19 = load double, ptr %18, align 8, !tbaa !110
  %20 = fcmp une double %17, %19
  br i1 %20, label %.loopexit, label %21, !llvm.loop !149

21:                                               ; preds = %15
  %.ptr.ptr = getelementptr inbounds nuw i8, ptr %.071, i64 16
  %22 = icmp ult ptr %.ptr.ptr, %4
  br i1 %22, label %.lr.ph, label %.lr.ph67.preheader

.lr.ph:                                           ; preds = %21, %29
  %.05564.idx = phi i64 [ %.05564.add, %29 ], [ 16, %21 ]
  %.05663 = phi i32 [ %30, %29 ], [ 2, %21 ]
  %.05564.ptr.ptr = getelementptr inbounds nuw i8, ptr %.071, i64 %.05564.idx
  %23 = load ptr, ptr %.05564.ptr.ptr, align 8, !tbaa !106
  %24 = load double, ptr %23, align 8, !tbaa !108
  %25 = fcmp oeq double %24, %13
  %26 = getelementptr inbounds nuw i8, ptr %23, i64 8
  %27 = load double, ptr %26, align 8, !tbaa !110
  %28 = fcmp oeq double %27, %19
  %or.cond = select i1 %25, i1 %28, i1 false
  br i1 %or.cond, label %29, label %split

29:                                               ; preds = %.lr.ph
  %30 = add nuw nsw i32 %.05663, 1
  %.05564.add = add nuw nsw i64 %.05564.idx, 8
  %.ptr73.ptr = getelementptr inbounds nuw i8, ptr %.071, i64 %.05564.add
  %31 = icmp ult ptr %.ptr73.ptr, %4
  br i1 %31, label %.lr.ph, label %.lr.ph67.preheader, !llvm.loop !150

split:                                            ; preds = %.lr.ph
  %.05564.ptr.ptr86 = getelementptr inbounds nuw i8, ptr %.071, i64 %.05564.idx
  %32 = fcmp oeq double %27, %19
  br i1 %32, label %.lr.ph70.preheader, label %.lr.ph67.preheader

.lr.ph70.preheader:                               ; preds = %split
  %33 = fsub double %24, %13
  %34 = uitofp nneg i32 %.05663 to double
  %35 = fdiv double %33, %34
  br label %.lr.ph70

.lr.ph70:                                         ; preds = %.lr.ph70.preheader, %.lr.ph70
  %.05269 = phi i32 [ %40, %.lr.ph70 ], [ 1, %.lr.ph70.preheader ]
  %.05368 = phi ptr [ %41, %.lr.ph70 ], [ %8, %.lr.ph70.preheader ]
  %36 = uitofp nneg i32 %.05269 to double
  %37 = load ptr, ptr %.05368, align 8, !tbaa !106
  %38 = load double, ptr %37, align 8, !tbaa !108
  %39 = tail call double @llvm.fmuladd.f64(double %36, double %35, double %38)
  store double %39, ptr %37, align 8, !tbaa !108
  %40 = add nuw nsw i32 %.05269, 1
  %41 = getelementptr inbounds nuw i8, ptr %.05368, i64 8
  %42 = icmp ult ptr %41, %.05564.ptr.ptr86
  br i1 %42, label %.lr.ph70, label %.loopexit, !llvm.loop !151

.lr.ph67.preheader:                               ; preds = %29, %split, %21
  %.05561.idx = phi i64 [ %.05564.idx, %split ], [ 16, %21 ], [ %.05564.add, %29 ]
  %.05561.ptr = getelementptr inbounds nuw i8, ptr %.071, i64 %.05561.idx
  br label %.lr.ph67

.lr.ph67:                                         ; preds = %.lr.ph67.preheader, %.lr.ph67
  %.266 = phi ptr [ %63, %.lr.ph67 ], [ %.071, %.lr.ph67.preheader ]
  %.15465 = phi ptr [ %64, %.lr.ph67 ], [ %8, %.lr.ph67.preheader ]
  %43 = load ptr, ptr %.266, align 8, !tbaa !106
  %44 = getelementptr inbounds nuw i8, ptr %43, i64 16
  %45 = load i64, ptr %44, align 8, !tbaa !152
  %46 = getelementptr inbounds nuw %struct.Info_t, ptr %6, i64 %45, i32 3
  %47 = getelementptr inbounds nuw i8, ptr %46, i64 16
  %48 = load double, ptr %47, align 8, !tbaa !153
  %49 = load double, ptr %46, align 8, !tbaa !154
  %50 = fsub double %48, %49
  %51 = load ptr, ptr %.15465, align 8, !tbaa !106
  %52 = getelementptr inbounds nuw i8, ptr %51, i64 16
  %53 = load i64, ptr %52, align 8, !tbaa !152
  %54 = getelementptr inbounds nuw %struct.Info_t, ptr %6, i64 %53, i32 3
  %55 = getelementptr inbounds nuw i8, ptr %54, i64 16
  %56 = load double, ptr %55, align 8, !tbaa !153
  %57 = load double, ptr %54, align 8, !tbaa !154
  %58 = fsub double %56, %57
  %59 = fadd double %50, %58
  %60 = load double, ptr %43, align 8, !tbaa !108
  %61 = fmul double %59, 5.000000e-01
  %62 = fadd double %60, %61
  store double %62, ptr %51, align 8, !tbaa !108
  %63 = getelementptr inbounds nuw i8, ptr %.266, i64 8
  %64 = getelementptr inbounds nuw i8, ptr %.15465, i64 8
  %65 = icmp ult ptr %64, %.05561.ptr
  br i1 %65, label %.lr.ph67, label %.loopexit, !llvm.loop !155

.loopexit:                                        ; preds = %.lr.ph70, %.lr.ph67, %7, %9, %15
  %.1 = phi ptr [ %8, %15 ], [ %8, %9 ], [ %8, %7 ], [ %.05561.ptr, %.lr.ph67 ], [ %.05564.ptr.ptr86, %.lr.ph70 ]
  %66 = icmp ult ptr %.1, %4
  br i1 %66, label %7, label %._crit_edge
}